target datalayout = "e-m:e-p270:32:32-p271:32:32-p272:64:64-i64:64-i128:128-f80:128-n8:16:32:64-S128"
target triple = "x86_64-pc-linux-gnu"

%"class.std::__cxx11::basic_string" = type { %"struct.std::__cxx11::basic_string<char>::_Alloc_hider", i64, %union.anon }
%"struct.std::__cxx11::basic_string<char>::_Alloc_hider" = type { ptr }
%union.anon = type { i64, [8 x i8] }
%"class.std::basic_string_view" = type { i64, ptr }
%"struct.cmQtAutoGen::IntegerVersion" = type { i32, i32 }
%class.cmQtAutoGenInitializer = type { ptr, ptr, ptr, ptr, ptr, %class.cmFilePathChecksum, %"struct.cmQtAutoGen::IntegerVersion", i32, i8, i8, i8, i8, i8, i8, i8, %"class.std::__cxx11::basic_string", %"class.std::vector", %"class.std::__cxx11::basic_string", %struct.anon, %struct.anon.8, %"struct.cmQtAutoGenInitializer::MocT", %"struct.cmQtAutoGenInitializer::UicT", %"struct.cmQtAutoGenInitializer::RccT" }
%class.cmFilePathChecksum = type { %"struct.std::array" }
%"struct.std::array" = type { [4 x %"struct.std::pair"] }
%"struct.std::pair" = type { %"class.std::__cxx11::basic_string", %"class.std::__cxx11::basic_string" }
%"class.std::vector" = type { %"struct.std::_Vector_base" }
%"struct.std::_Vector_base" = type { %"struct.std::_Vector_base<std::__cxx11::basic_string<char>, std::allocator<std::__cxx11::basic_string<char>>>::_Vector_impl" }
%"struct.std::_Vector_base<std::__cxx11::basic_string<char>, std::allocator<std::__cxx11::basic_string<char>>>::_Vector_impl" = type { %"struct.std::_Vector_base<std::__cxx11::basic_string<char>, std::allocator<std::__cxx11::basic_string<char>>>::_Vector_impl_data" }
%"struct.std::_Vector_base<std::__cxx11::basic_string<char>, std::allocator<std::__cxx11::basic_string<char>>>::_Vector_impl_data" = type { ptr, ptr, ptr }
%struct.anon = type { %"class.std::__cxx11::basic_string", %"class.std::__cxx11::basic_string", %"class.std::__cxx11::basic_string", %"class.std::__cxx11::basic_string", %"class.cmQtAutoGen::ConfigString", %"class.std::__cxx11::basic_string" }
%"class.cmQtAutoGen::ConfigString" = type { %"class.std::__cxx11::basic_string", %"class.std::unordered_map" }
%"class.std::unordered_map" = type { %"class.std::_Hashtable" }
%"class.std::_Hashtable" = type { ptr, i64, %"struct.std::__detail::_Hash_node_base", i64, %"struct.std::__detail::_Prime_rehash_policy", ptr }
%"struct.std::__detail::_Hash_node_base" = type { ptr }
%"struct.std::__detail::_Prime_rehash_policy" = type { float, i64 }
%struct.anon.8 = type { %"class.std::__cxx11::basic_string", i8, i32, i32, %"class.std::__cxx11::basic_string", %"class.cmQtAutoGen::ConfigString", %"class.cmQtAutoGen::ConfigString", i8, %"class.std::set", %"class.std::set.12", %"class.cmQtAutoGen::ConfigString", %"class.cmQtAutoGen::ConfigString", %"class.std::unordered_map.20", %"class.std::unordered_map.20", %"class.std::vector.40", %"class.std::vector.45" }
%"class.std::set" = type { %"class.std::_Rb_tree" }
%"class.std::_Rb_tree" = type { %"struct.std::_Rb_tree<std::__cxx11::basic_string<char>, std::__cxx11::basic_string<char>, std::_Identity<std::__cxx11::basic_string<char>>, std::less<std::__cxx11::basic_string<char>>>::_Rb_tree_impl" }
%"struct.std::_Rb_tree<std::__cxx11::basic_string<char>, std::__cxx11::basic_string<char>, std::_Identity<std::__cxx11::basic_string<char>>, std::less<std::__cxx11::basic_string<char>>>::_Rb_tree_impl" = type { %"struct.std::_Rb_tree_key_compare", %"struct.std::_Rb_tree_header" }
%"struct.std::_Rb_tree_key_compare" = type { %"struct.std::less" }
%"struct.std::less" = type { i8 }
%"struct.std::_Rb_tree_header" = type { %"struct.std::_Rb_tree_node_base", i64 }
%"struct.std::_Rb_tree_node_base" = type { i32, ptr, ptr, ptr }
%"class.std::set.12" = type { %"class.std::_Rb_tree.13" }
%"class.std::_Rb_tree.13" = type { %"struct.std::_Rb_tree<cmTarget *, cmTarget *, std::_Identity<cmTarget *>, std::less<cmTarget *>>::_Rb_tree_impl" }
%"struct.std::_Rb_tree<cmTarget *, cmTarget *, std::_Identity<cmTarget *>, std::less<cmTarget *>>::_Rb_tree_impl" = type { %"struct.std::_Rb_tree_key_compare.17", %"struct.std::_Rb_tree_header" }
%"struct.std::_Rb_tree_key_compare.17" = type { %"struct.std::less.18" }
%"struct.std::less.18" = type { i8 }
%"class.std::unordered_map.20" = type { %"class.std::_Hashtable.21" }
%"class.std::_Hashtable.21" = type { ptr, i64, %"struct.std::__detail::_Hash_node_base", i64, %"struct.std::__detail::_Prime_rehash_policy", ptr }
%"class.std::vector.40" = type { %"struct.std::_Vector_base.41" }
%"struct.std::_Vector_base.41" = type { %"struct.std::_Vector_base<cmQtAutoGenInitializer::MUFile *, std::allocator<cmQtAutoGenInitializer::MUFile *>>::_Vector_impl" }
%"struct.std::_Vector_base<cmQtAutoGenInitializer::MUFile *, std::allocator<cmQtAutoGenInitializer::MUFile *>>::_Vector_impl" = type { %"struct.std::_Vector_base<cmQtAutoGenInitializer::MUFile *, std::allocator<cmQtAutoGenInitializer::MUFile *>>::_Vector_impl_data" }
%"struct.std::_Vector_base<cmQtAutoGenInitializer::MUFile *, std::allocator<cmQtAutoGenInitializer::MUFile *>>::_Vector_impl_data" = type { ptr, ptr, ptr }
%"class.std::vector.45" = type { %"struct.std::_Vector_base.46" }
%"struct.std::_Vector_base.46" = type { %"struct.std::_Vector_base<cmSourceFile *, std::allocator<cmSourceFile *>>::_Vector_impl" }
%"struct.std::_Vector_base<cmSourceFile *, std::allocator<cmSourceFile *>>::_Vector_impl" = type { %"struct.std::_Vector_base<cmSourceFile *, std::allocator<cmSourceFile *>>::_Vector_impl_data" }
%"struct.std::_Vector_base<cmSourceFile *, std::allocator<cmSourceFile *>>::_Vector_impl_data" = type { ptr, ptr, ptr }
%"struct.cmQtAutoGenInitializer::MocT" = type { %"struct.cmQtAutoGenInitializer::GenVarsT", i8, i8, %"class.cmQtAutoGen::ConfigString", %"class.std::__cxx11::basic_string", %"class.std::vector", %"class.cmQtAutoGen::ConfigString", %"class.cmQtAutoGen::ConfigStrings.64", %"class.cmQtAutoGen::ConfigStrings.79", %"class.std::vector", %"class.std::vector", %"class.std::vector.94", %"class.std::unordered_set" }
%"struct.cmQtAutoGenInitializer::GenVarsT" = type { i8, i32, %"class.std::basic_string_view", %"class.std::__cxx11::basic_string", ptr, %"class.cmQtAutoGen::ConfigString", %"class.cmQtAutoGen::ConfigStrings" }
%"class.cmQtAutoGen::ConfigStrings" = type { %"class.std::shared_ptr", %"class.std::unordered_map.50" }
%"class.std::shared_ptr" = type { %"class.std::__shared_ptr" }
%"class.std::__shared_ptr" = type { ptr, %"class.std::__shared_count" }
%"class.std::__shared_count" = type { ptr }
%"class.std::unordered_map.50" = type { %"class.std::_Hashtable.51" }
%"class.std::_Hashtable.51" = type { ptr, i64, %"struct.std::__detail::_Hash_node_base", i64, %"struct.std::__detail::_Prime_rehash_policy", ptr }
%"class.cmQtAutoGen::ConfigStrings.64" = type { %"class.std::set", %"class.std::unordered_map.65" }
%"class.std::unordered_map.65" = type { %"class.std::_Hashtable.66" }
%"class.std::_Hashtable.66" = type { ptr, i64, %"struct.std::__detail::_Hash_node_base", i64, %"struct.std::__detail::_Prime_rehash_policy", ptr }
%"class.cmQtAutoGen::ConfigStrings.79" = type { %"class.std::vector", %"class.std::unordered_map.80" }
%"class.std::unordered_map.80" = type { %"class.std::_Hashtable.81" }
%"class.std::_Hashtable.81" = type { ptr, i64, %"struct.std::__detail::_Hash_node_base", i64, %"struct.std::__detail::_Prime_rehash_policy", ptr }
%"class.std::vector.94" = type { %"struct.std::_Vector_base.95" }
%"struct.std::_Vector_base.95" = type { %"struct.std::_Vector_base<std::pair<std::__cxx11::basic_string<char>, std::__cxx11::basic_string<char>>, std::allocator<std::pair<std::__cxx11::basic_string<char>, std::__cxx11::basic_string<char>>>>::_Vector_impl" }
%"struct.std::_Vector_base<std::pair<std::__cxx11::basic_string<char>, std::__cxx11::basic_string<char>>, std::allocator<std::pair<std::__cxx11::basic_string<char>, std::__cxx11::basic_string<char>>>>::_Vector_impl" = type { %"struct.std::_Vector_base<std::pair<std::__cxx11::basic_string<char>, std::__cxx11::basic_string<char>>, std::allocator<std::pair<std::__cxx11::basic_string<char>, std::__cxx11::basic_string<char>>>>::_Vector_impl_data" }
%"struct.std::_Vector_base<std::pair<std::__cxx11::basic_string<char>, std::__cxx11::basic_string<char>>, std::allocator<std::pair<std::__cxx11::basic_string<char>, std::__cxx11::basic_string<char>>>>::_Vector_impl_data" = type { ptr, ptr, ptr }
%"class.std::unordered_set" = type { %"class.std::_Hashtable.99" }
%"class.std::_Hashtable.99" = type { ptr, i64, %"struct.std::__detail::_Hash_node_base", i64, %"struct.std::__detail::_Prime_rehash_policy", ptr }
%"struct.cmQtAutoGenInitializer::UicT" = type { %"struct.cmQtAutoGenInitializer::GenVarsT", %"class.std::set", %"class.std::vector", %"class.std::vector.112", %"class.cmQtAutoGen::ConfigStrings.79", %"class.std::vector", %"class.std::vector.117" }
%"class.std::vector.112" = type { %"struct.std::_Vector_base.113" }
%"struct.std::_Vector_base.113" = type { %"struct.std::_Vector_base<std::pair<std::__cxx11::basic_string<char>, std::vector<std::__cxx11::basic_string<char>>>, std::allocator<std::pair<std::__cxx11::basic_string<char>, std::vector<std::__cxx11::basic_string<char>>>>>::_Vector_impl" }
%"struct.std::_Vector_base<std::pair<std::__cxx11::basic_string<char>, std::vector<std::__cxx11::basic_string<char>>>, std::allocator<std::pair<std::__cxx11::basic_string<char>, std::vector<std::__cxx11::basic_string<char>>>>>::_Vector_impl" = type { %"struct.std::_Vector_base<std::pair<std::__cxx11::basic_string<char>, std::vector<std::__cxx11::basic_string<char>>>, std::allocator<std::pair<std::__cxx11::basic_string<char>, std::vector<std::__cxx11::basic_string<char>>>>>::_Vector_impl_data" }
%"struct.std::_Vector_base<std::pair<std::__cxx11::basic_string<char>, std::vector<std::__cxx11::basic_string<char>>>, std::allocator<std::pair<std::__cxx11::basic_string<char>, std::vector<std::__cxx11::basic_string<char>>>>>::_Vector_impl_data" = type { ptr, ptr, ptr }
%"class.std::vector.117" = type { %"struct.std::_Vector_base.118" }
%"struct.std::_Vector_base.118" = type { %"struct.std::_Vector_base<std::pair<cmQtAutoGen::ConfigString, std::__cxx11::basic_string<char>>, std::allocator<std::pair<cmQtAutoGen::ConfigString, std::__cxx11::basic_string<char>>>>::_Vector_impl" }
%"struct.std::_Vector_base<std::pair<cmQtAutoGen::ConfigString, std::__cxx11::basic_string<char>>, std::allocator<std::pair<cmQtAutoGen::ConfigString, std::__cxx11::basic_string<char>>>>::_Vector_impl" = type { %"struct.std::_Vector_base<std::pair<cmQtAutoGen::ConfigString, std::__cxx11::basic_string<char>>, std::allocator<std::pair<cmQtAutoGen::ConfigString, std::__cxx11::basic_string<char>>>>::_Vector_impl_data" }
%"struct.std::_Vector_base<std::pair<cmQtAutoGen::ConfigString, std::__cxx11::basic_string<char>>, std::allocator<std::pair<cmQtAutoGen::ConfigString, std::__cxx11::basic_string<char>>>>::_Vector_impl_data" = type { ptr, ptr, ptr }
%"struct.cmQtAutoGenInitializer::RccT" = type { %"struct.cmQtAutoGenInitializer::GenVarsT", i8, %"class.std::vector.122" }
%"class.std::vector.122" = type { %"struct.std::_Vector_base.123" }
%"struct.std::_Vector_base.123" = type { %"struct.std::_Vector_base<cmQtAutoGenInitializer::Qrc, std::allocator<cmQtAutoGenInitializer::Qrc>>::_Vector_impl" }
%"struct.std::_Vector_base<cmQtAutoGenInitializer::Qrc, std::allocator<cmQtAutoGenInitializer::Qrc>>::_Vector_impl" = type { %"struct.std::_Vector_base<cmQtAutoGenInitializer::Qrc, std::allocator<cmQtAutoGenInitializer::Qrc>>::_Vector_impl_data" }
%"struct.std::_Vector_base<cmQtAutoGenInitializer::Qrc, std::allocator<cmQtAutoGenInitializer::Qrc>>::_Vector_impl_data" = type { ptr, ptr, ptr }

; Function Attrs: mustprogress uwtable
define dso_local noundef ptr @_ZN22cmQtAutoGenInitializer18AddGeneratedSourceERKNSt7__cxx1112basic_stringIcSt11char_traitsIcESaIcEEERKNS_8GenVarsTEb(ptr noundef nonnull align 8 dereferenceable(2832) %0, ptr noundef nonnull align 8 dereferenceable(32) %1, ptr noundef nonnull align 8 dereferenceable(224) %2, i1 noundef zeroext %3) #4 align 2 {
  %5 = alloca ptr, align 8
  %6 = alloca ptr, align 8
  %7 = alloca ptr, align 8
  %8 = alloca i8, align 1
  %9 = alloca ptr, align 8
  %10 = alloca %"class.std::basic_string_view", align 8
  store ptr %0, ptr %5, align 8
  store ptr %1, ptr %6, align 8
  store ptr %2, ptr %7, align 8
  %11 = zext i1 %3 to i8
  store i8 %11, ptr %8, align 1
  %12 = load ptr, ptr %5, align 8
  %13 = load ptr, ptr %6, align 8
  %14 = call noundef ptr @_ZN22cmQtAutoGenInitializer23RegisterGeneratedSourceERKNSt7__cxx1112basic_stringIcSt11char_traitsIcESaIcEEE(ptr noundef nonnull align 8 dereferenceable(2832) %12, ptr noundef nonnull align 8 dereferenceable(32) %13)
  store ptr %14, ptr %9, align 8
  %15 = getelementptr inbounds %class.cmQtAutoGenInitializer, ptr %12, i32 0, i32 1
  %16 = load ptr, ptr %15, align 8
  %17 = load ptr, ptr %6, align 8
  %18 = load i8, ptr %8, align 1
  %19 = trunc i8 %18 to i1
  call void @_ZN17cmGeneratorTarget9AddSourceERKNSt7__cxx1112basic_stringIcSt11char_traitsIcESaIcEEEb(ptr noundef nonnull align 8 dereferenceable(2728) %16, ptr noundef nonnull align 8 dereferenceable(32) %17, i1 noundef zeroext %19)
  %20 = load ptr, ptr %6, align 8
  %21 = load ptr, ptr %7, align 8
  %22 = getelementptr inbounds %"struct.cmQtAutoGenInitializer::GenVarsT", ptr %21, i32 0, i32 2
  call void @llvm.memcpy.p0.p0.i64(ptr align 8 %10, ptr align 8 %22, i64 16, i1 false)
  %23 = getelementptr inbounds { i64, ptr }, ptr %10, i32 0, i32 0
  %24 = load i64, ptr %23, align 8
  %25 = getelementptr inbounds { i64, ptr }, ptr %10, i32 0, i32 1
  %26 = load ptr, ptr %25, align 8
  call void @_ZN22cmQtAutoGenInitializer16AddToSourceGroupERKNSt7__cxx1112basic_stringIcSt11char_traitsIcESaIcEEESt17basic_string_viewIcS3_E(ptr noundef nonnull align 8 dereferenceable(2832) %12, ptr noundef nonnull align 8 dereferenceable(32) %20, i64 %24, ptr %26)
  %27 = load ptr, ptr %9, align 8
  ret ptr %27
}