; Function Attrs: mustprogress uwtable
define dso_local noundef ptr @_ZN22cmQtAutoGenInitializer18AddGeneratedSourceERKNSt7__cxx1112basic_stringIcSt11char_traitsIcESaIcEEERKNS_8GenVarsTEb(ptr nocapture noundef nonnull readonly align 8 dereferenceable(2832) %0, ptr noundef nonnull align 8 dereferenceable(32) %1, ptr nocapture noundef nonnull readonly align 8 dereferenceable(224) %2, i1 noundef zeroext %3) local_unnamed_addr #3 align 2 {
  %5 = tail call noundef ptr @_ZN22cmQtAutoGenInitializer23RegisterGeneratedSourceERKNSt7__cxx1112basic_stringIcSt11char_traitsIcESaIcEEE(ptr noundef nonnull align 8 dereferenceable(2832) %0, ptr noundef nonnull align 8 dereferenceable(32) %1)
  %6 = getelementptr inbounds i8, ptr %0, i64 8
  %7 = load ptr, ptr %6, align 8
  tail call void @_ZN17cmGeneratorTarget9AddSourceERKNSt7__cxx1112basic_stringIcSt11char_traitsIcESaIcEEEb(ptr noundef nonnull align 8 dereferenceable(2728) %7, ptr noundef nonnull align 8 dereferenceable(32) %1, i1 noundef zeroext %3)
  %8 = getelementptr inbounds i8, ptr %2, i64 8
  %.sroa.0.0.copyload = load i64, ptr %8, align 8
  %.sroa.2.0..sroa_idx = getelementptr inbounds i8, ptr %2, i64 16
  %.sroa.2.0.copyload = load ptr, ptr %.sroa.2.0..sroa_idx, align 8
  tail call void @_ZN22cmQtAutoGenInitializer16AddToSourceGroupERKNSt7__cxx1112basic_stringIcSt11char_traitsIcESaIcEEESt17basic_string_viewIcS3_E(ptr noundef nonnull align 8 dereferenceable(2832) %0, ptr noundef nonnull align 8 dereferenceable(32) %1, i64 %.sroa.0.0.copyload, ptr %.sroa.2.0.copyload)
  ret ptr %5
}